; Function Attrs: mustprogress nounwind uwtable
define hidden void @_ZN8JVMCIEnv50set_HotSpotStackFrameReference_objectsMaterializedE11JVMCIObjecth(ptr noundef nonnull align 8 dereferenceable(64) %0, ptr %1, i8 %2, i8 noundef zeroext %3) local_unnamed_addr #0 align 2 {
  %5 = getelementptr inbounds i8, ptr %0, i64 24
  %6 = load i8, ptr %5, align 8
  %7 = trunc i8 %6 to i1
  br i1 %7, label %8, label %10

8:                                                ; preds = %4
  %9 = tail call noundef ptr @_ZN12HotSpotJVMCI7resolveE11JVMCIObject(ptr %1, i8 %2) #14
  tail call void @_ZN12HotSpotJVMCI26HotSpotStackFrameReference23set_objectsMaterializedEP8JVMCIEnvP7oopDesch(ptr noundef nonnull %0, ptr noundef %9, i8 noundef zeroext %3) #14
  br label %11

10:                                               ; preds = %4
  tail call void @_ZN8JNIJVMCI26HotSpotStackFrameReference23set_objectsMaterializedEP8JVMCIEnv11JVMCIObjecth(ptr noundef nonnull %0, ptr %1, i8 %2, i8 noundef zeroext %3) #14
  br label %11

11:                                               ; preds = %10, %8
  ret void
}